target datalayout = "e-m:e-p270:32:32-p271:32:32-p272:64:64-i64:64-i128:128-f80:128-n8:16:32:64-S128"
target triple = "x86_64-pc-linux-gnu"

%struct.VP8EncIterator = type { i32, i32, ptr, ptr, ptr, ptr, ptr, ptr, ptr, ptr, ptr, [37 x i8], ptr, i32, [9 x i32], [9 x i32], [4 x [3 x i64]], i64, i64, ptr, i32, i32, i32, i32, [2 x [2 x i8]], ptr, ptr, ptr, ptr, ptr, ptr, [88 x i8], [3359 x i8] }
%struct.VP8Encoder = type { ptr, ptr, %struct.VP8EncFilterHeader, %struct.VP8EncSegmentHeader, i32, i32, i32, i32, i32, %struct.VP8BitWriter, [8 x %struct.VP8BitWriter], %struct.VP8TBuffer, i32, i32, ptr, i32, %struct.WebPWorker, [4 x %struct.VP8SegmentInfo], i32, i32, i32, i32, i32, i32, i32, i32, %struct.VP8EncProba, [4 x i64], i64, i32, [3 x [4 x i32]], [3 x i32], i32, i32, i32, i32, i32, i32, i32, ptr, ptr, ptr, ptr, ptr, ptr, ptr }
%struct.VP8EncFilterHeader = type { i32, i32, i32, i32 }
%struct.VP8EncSegmentHeader = type { i32, i32, i32 }
%struct.VP8BitWriter = type { i32, i32, i32, i32, ptr, i64, i64, i32 }
%struct.VP8TBuffer = type { ptr, ptr, ptr, i32, i32, i32 }
%struct.WebPWorker = type { ptr, i32, ptr, ptr, ptr, i32 }
%struct.VP8SegmentInfo = type { %struct.VP8Matrix, %struct.VP8Matrix, %struct.VP8Matrix, i32, i32, i32, i32, i32, i32, i32, i32, i32, i32, i32, i32, i32, i32, i32, i64 }
%struct.VP8Matrix = type { [16 x i16], [16 x i16], [16 x i32], [16 x i32], [16 x i16] }
%struct.VP8EncProba = type { [3 x i8], i8, [4 x [8 x [3 x [11 x i8]]]], [4 x [8 x [3 x [11 x i32]]]], [4 x [8 x [3 x [68 x i16]]]], [4 x [16 x [3 x ptr]]], i32, i32, i32 }
%struct.VP8MBInfo = type { i8, i8, [2 x i8] }

; Function Attrs: nounwind uwtable
define internal void @InitLeft(ptr noundef %0) #0 {
  %2 = alloca ptr, align 8
  store ptr %0, ptr %2, align 8, !tbaa !3
  %3 = load ptr, ptr %2, align 8, !tbaa !3
  %4 = getelementptr inbounds nuw %struct.VP8EncIterator, ptr %3, i32 0, i32 1
  %5 = load i32, ptr %4, align 4, !tbaa !19
  %6 = icmp sgt i32 %5, 0
  %7 = select i1 %6, i32 129, i32 127
  %8 = trunc i32 %7 to i8
  %9 = load ptr, ptr %2, align 8, !tbaa !3
  %10 = getelementptr inbounds nuw %struct.VP8EncIterator, ptr %9, i32 0, i32 28
  %11 = load ptr, ptr %10, align 8, !tbaa !46
  %12 = getelementptr inbounds i8, ptr %11, i64 -1
  store i8 %8, ptr %12, align 1, !tbaa !47
  %13 = load ptr, ptr %2, align 8, !tbaa !3
  %14 = getelementptr inbounds nuw %struct.VP8EncIterator, ptr %13, i32 0, i32 27
  %15 = load ptr, ptr %14, align 8, !tbaa !48
  %16 = getelementptr inbounds i8, ptr %15, i64 -1
  store i8 %8, ptr %16, align 1, !tbaa !47
  %17 = load ptr, ptr %2, align 8, !tbaa !3
  %18 = getelementptr inbounds nuw %struct.VP8EncIterator, ptr %17, i32 0, i32 26
  %19 = load ptr, ptr %18, align 8, !tbaa !49
  %20 = getelementptr inbounds i8, ptr %19, i64 -1
  store i8 %8, ptr %20, align 1, !tbaa !47
  %21 = load ptr, ptr %2, align 8, !tbaa !3
  %22 = getelementptr inbounds nuw %struct.VP8EncIterator, ptr %21, i32 0, i32 26
  %23 = load ptr, ptr %22, align 8, !tbaa !49
  call void @llvm.memset.p0.i64(ptr align 1 %23, i8 -127, i64 16, i1 false)
  %24 = load ptr, ptr %2, align 8, !tbaa !3
  %25 = getelementptr inbounds nuw %struct.VP8EncIterator, ptr %24, i32 0, i32 27
  %26 = load ptr, ptr %25, align 8, !tbaa !48
  call void @llvm.memset.p0.i64(ptr align 1 %26, i8 -127, i64 8, i1 false)
  %27 = load ptr, ptr %2, align 8, !tbaa !3
  %28 = getelementptr inbounds nuw %struct.VP8EncIterator, ptr %27, i32 0, i32 28
  %29 = load ptr, ptr %28, align 8, !tbaa !46
  call void @llvm.memset.p0.i64(ptr align 1 %29, i8 -127, i64 8, i1 false)
  %30 = load ptr, ptr %2, align 8, !tbaa !3
  %31 = getelementptr inbounds nuw %struct.VP8EncIterator, ptr %30, i32 0, i32 15
  %32 = getelementptr inbounds [9 x i32], ptr %31, i64 0, i64 8
  store i32 0, ptr %32, align 8, !tbaa !7
  %33 = load ptr, ptr %2, align 8, !tbaa !3
  %34 = getelementptr inbounds nuw %struct.VP8EncIterator, ptr %33, i32 0, i32 25
  %35 = load ptr, ptr %34, align 8, !tbaa !50
  %36 = icmp ne ptr %35, null
  br i1 %36, label %37, label %40

37:                                               ; preds = %1
  %38 = load ptr, ptr %2, align 8, !tbaa !3
  %39 = getelementptr inbounds nuw %struct.VP8EncIterator, ptr %38, i32 0, i32 24
  call void @llvm.memset.p0.i64(ptr align 8 %39, i8 0, i64 4, i1 false)
  br label %40

40:                                               ; preds = %37, %1
  ret void
}

; Function Attrs: nounwind uwtable
define hidden void @VP8IteratorSetRow(ptr noundef %0, i32 noundef %1) #0 {
  %3 = alloca ptr, align 8
  %4 = alloca i32, align 4
  %5 = alloca ptr, align 8
  store ptr %0, ptr %3, align 8, !tbaa !3
  store i32 %1, ptr %4, align 4, !tbaa !7
  call void @llvm.lifetime.start.p0(i64 8, ptr %5) #6
  %6 = load ptr, ptr %3, align 8, !tbaa !3
  %7 = getelementptr inbounds nuw %struct.VP8EncIterator, ptr %6, i32 0, i32 6
  %8 = load ptr, ptr %7, align 8, !tbaa !9
  store ptr %8, ptr %5, align 8, !tbaa !17
  %9 = load ptr, ptr %3, align 8, !tbaa !3
  %10 = getelementptr inbounds nuw %struct.VP8EncIterator, ptr %9, i32 0, i32 0
  store i32 0, ptr %10, align 8, !tbaa !18
  %11 = load i32, ptr %4, align 4, !tbaa !7
  %12 = load ptr, ptr %3, align 8, !tbaa !3
  %13 = getelementptr inbounds nuw %struct.VP8EncIterator, ptr %12, i32 0, i32 1
  store i32 %11, ptr %13, align 4, !tbaa !19
  %14 = load ptr, ptr %5, align 8, !tbaa !17
  %15 = getelementptr inbounds nuw %struct.VP8Encoder, ptr %14, i32 0, i32 10
  %16 = load i32, ptr %4, align 4, !tbaa !7
  %17 = load ptr, ptr %5, align 8, !tbaa !17
  %18 = getelementptr inbounds nuw %struct.VP8Encoder, ptr %17, i32 0, i32 8
  %19 = load i32, ptr %18, align 4, !tbaa !20
  %20 = sub nsw i32 %19, 1
  %21 = and i32 %16, %20
  %22 = sext i32 %21 to i64
  %23 = getelementptr inbounds [8 x %struct.VP8BitWriter], ptr %15, i64 0, i64 %22
  %24 = load ptr, ptr %3, align 8, !tbaa !3
  %25 = getelementptr inbounds nuw %struct.VP8EncIterator, ptr %24, i32 0, i32 8
  store ptr %23, ptr %25, align 8, !tbaa !33
  %26 = load ptr, ptr %5, align 8, !tbaa !17
  %27 = getelementptr inbounds nuw %struct.VP8Encoder, ptr %26, i32 0, i32 40
  %28 = load ptr, ptr %27, align 8, !tbaa !34
  %29 = load i32, ptr %4, align 4, !tbaa !7
  %30 = mul nsw i32 %29, 4
  %31 = load ptr, ptr %5, align 8, !tbaa !17
  %32 = getelementptr inbounds nuw %struct.VP8Encoder, ptr %31, i32 0, i32 7
  %33 = load i32, ptr %32, align 8, !tbaa !35
  %34 = mul nsw i32 %30, %33
  %35 = sext i32 %34 to i64
  %36 = getelementptr inbounds i8, ptr %28, i64 %35
  %37 = load ptr, ptr %3, align 8, !tbaa !3
  %38 = getelementptr inbounds nuw %struct.VP8EncIterator, ptr %37, i32 0, i32 9
  store ptr %36, ptr %38, align 8, !tbaa !36
  %39 = load ptr, ptr %5, align 8, !tbaa !17
  %40 = getelementptr inbounds nuw %struct.VP8Encoder, ptr %39, i32 0, i32 41
  %41 = load ptr, ptr %40, align 8, !tbaa !37
  %42 = load ptr, ptr %3, align 8, !tbaa !3
  %43 = getelementptr inbounds nuw %struct.VP8EncIterator, ptr %42, i32 0, i32 10
  store ptr %41, ptr %43, align 8, !tbaa !38
  %44 = load ptr, ptr %5, align 8, !tbaa !17
  %45 = getelementptr inbounds nuw %struct.VP8Encoder, ptr %44, i32 0, i32 39
  %46 = load ptr, ptr %45, align 8, !tbaa !39
  %47 = load i32, ptr %4, align 4, !tbaa !7
  %48 = load ptr, ptr %5, align 8, !tbaa !17
  %49 = getelementptr inbounds nuw %struct.VP8Encoder, ptr %48, i32 0, i32 5
  %50 = load i32, ptr %49, align 8, !tbaa !40
  %51 = mul nsw i32 %47, %50
  %52 = sext i32 %51 to i64
  %53 = getelementptr inbounds %struct.VP8MBInfo, ptr %46, i64 %52
  %54 = load ptr, ptr %3, align 8, !tbaa !3
  %55 = getelementptr inbounds nuw %struct.VP8EncIterator, ptr %54, i32 0, i32 7
  store ptr %53, ptr %55, align 8, !tbaa !41
  %56 = load ptr, ptr %5, align 8, !tbaa !17
  %57 = getelementptr inbounds nuw %struct.VP8Encoder, ptr %56, i32 0, i32 42
  %58 = load ptr, ptr %57, align 8, !tbaa !42
  %59 = load ptr, ptr %3, align 8, !tbaa !3
  %60 = getelementptr inbounds nuw %struct.VP8EncIterator, ptr %59, i32 0, i32 29
  store ptr %58, ptr %60, align 8, !tbaa !43
  %61 = load ptr, ptr %5, align 8, !tbaa !17
  %62 = getelementptr inbounds nuw %struct.VP8Encoder, ptr %61, i32 0, i32 43
  %63 = load ptr, ptr %62, align 8, !tbaa !44
  %64 = load ptr, ptr %3, align 8, !tbaa !3
  %65 = getelementptr inbounds nuw %struct.VP8EncIterator, ptr %64, i32 0, i32 30
  store ptr %63, ptr %65, align 8, !tbaa !45
  %66 = load ptr, ptr %3, align 8, !tbaa !3
  call void @InitLeft(ptr noundef %66)
  call void @llvm.lifetime.end.p0(i64 8, ptr %5) #6
  ret void
}

; Function Attrs: nounwind uwtable
define hidden i32 @VP8IteratorNext(ptr noundef %0) #0 {
  %2 = alloca ptr, align 8
  store ptr %0, ptr %2, align 8, !tbaa !3
  %3 = load ptr, ptr %2, align 8, !tbaa !3
  %4 = getelementptr inbounds nuw %struct.VP8EncIterator, ptr %3, i32 0, i32 0
  %5 = load i32, ptr %4, align 8, !tbaa !18
  %6 = add nsw i32 %5, 1
  store i32 %6, ptr %4, align 8, !tbaa !18
  %7 = load ptr, ptr %2, align 8, !tbaa !3
  %8 = getelementptr inbounds nuw %struct.VP8EncIterator, ptr %7, i32 0, i32 6
  %9 = load ptr, ptr %8, align 8, !tbaa !9
  %10 = getelementptr inbounds nuw %struct.VP8Encoder, ptr %9, i32 0, i32 5
  %11 = load i32, ptr %10, align 8, !tbaa !40
  %12 = icmp eq i32 %6, %11
  br i1 %12, label %13, label %19

13:                                               ; preds = %1
  %14 = load ptr, ptr %2, align 8, !tbaa !3
  %15 = load ptr, ptr %2, align 8, !tbaa !3
  %16 = getelementptr inbounds nuw %struct.VP8EncIterator, ptr %15, i32 0, i32 1
  %17 = load i32, ptr %16, align 4, !tbaa !19
  %18 = add nsw i32 %17, 1
  store i32 %18, ptr %16, align 4, !tbaa !19
  call void @VP8IteratorSetRow(ptr noundef %14, i32 noundef %18)
  br label %40

19:                                               ; preds = %1
  %20 = load ptr, ptr %2, align 8, !tbaa !3
  %21 = getelementptr inbounds nuw %struct.VP8EncIterator, ptr %20, i32 0, i32 9
  %22 = load ptr, ptr %21, align 8, !tbaa !36
  %23 = getelementptr inbounds i8, ptr %22, i64 4
  store ptr %23, ptr %21, align 8, !tbaa !36
  %24 = load ptr, ptr %2, align 8, !tbaa !3
  %25 = getelementptr inbounds nuw %struct.VP8EncIterator, ptr %24, i32 0, i32 7
  %26 = load ptr, ptr %25, align 8, !tbaa !41
  %27 = getelementptr inbounds %struct.VP8MBInfo, ptr %26, i64 1
  store ptr %27, ptr %25, align 8, !tbaa !41
  %28 = load ptr, ptr %2, align 8, !tbaa !3
  %29 = getelementptr inbounds nuw %struct.VP8EncIterator, ptr %28, i32 0, i32 10
  %30 = load ptr, ptr %29, align 8, !tbaa !38
  %31 = getelementptr inbounds i32, ptr %30, i64 1
  store ptr %31, ptr %29, align 8, !tbaa !38
  %32 = load ptr, ptr %2, align 8, !tbaa !3
  %33 = getelementptr inbounds nuw %struct.VP8EncIterator, ptr %32, i32 0, i32 29
  %34 = load ptr, ptr %33, align 8, !tbaa !43
  %35 = getelementptr inbounds i8, ptr %34, i64 16
  store ptr %35, ptr %33, align 8, !tbaa !43
  %36 = load ptr, ptr %2, align 8, !tbaa !3
  %37 = getelementptr inbounds nuw %struct.VP8EncIterator, ptr %36, i32 0, i32 30
  %38 = load ptr, ptr %37, align 8, !tbaa !45
  %39 = getelementptr inbounds i8, ptr %38, i64 16
  store ptr %39, ptr %37, align 8, !tbaa !45
  br label %40

40:                                               ; preds = %19, %13
  %41 = load ptr, ptr %2, align 8, !tbaa !3
  %42 = getelementptr inbounds nuw %struct.VP8EncIterator, ptr %41, i32 0, i32 21
  %43 = load i32, ptr %42, align 4, !tbaa !52
  %44 = add nsw i32 %43, -1
  store i32 %44, ptr %42, align 4, !tbaa !52
  %45 = icmp slt i32 0, %44
  %46 = zext i1 %45 to i32
  ret i32 %46
}