; Function Attrs: mustprogress nofree norecurse nosync nounwind willreturn memory(readwrite, inaccessiblemem: none) uwtable
define hidden range(i32 0, 2) i32 @VP8IteratorNext(ptr noundef captures(none) %0) local_unnamed_addr #0 {
  %2 = load i32, ptr %0, align 8, !tbaa !15
  %3 = add nsw i32 %2, 1
  store i32 %3, ptr %0, align 8, !tbaa !15
  %4 = getelementptr inbounds nuw i8, ptr %0, i64 40
  %5 = load ptr, ptr %4, align 8, !tbaa !3
  %6 = getelementptr inbounds nuw i8, ptr %5, i64 48
  %7 = load i32, ptr %6, align 8, !tbaa !37
  %8 = icmp eq i32 %3, %7
  br i1 %8, label %9, label %64

9:                                                ; preds = %1
  %10 = getelementptr inbounds nuw i8, ptr %0, i64 4
  %11 = load i32, ptr %10, align 4, !tbaa !16
  %12 = add nsw i32 %11, 1
  store i32 0, ptr %0, align 8, !tbaa !15
  store i32 %12, ptr %10, align 4, !tbaa !16
  %13 = getelementptr inbounds nuw i8, ptr %5, i64 112
  %14 = getelementptr inbounds nuw i8, ptr %5, i64 60
  %15 = load i32, ptr %14, align 4, !tbaa !17
  %16 = add nsw i32 %15, -1
  %17 = and i32 %16, %12
  %18 = sext i32 %17 to i64
  %19 = getelementptr inbounds [8 x %struct.VP8BitWriter], ptr %13, i64 0, i64 %18
  %20 = getelementptr inbounds nuw i8, ptr %0, i64 56
  store ptr %19, ptr %20, align 8, !tbaa !30
  %21 = getelementptr inbounds nuw i8, ptr %5, i64 23656
  %22 = load ptr, ptr %21, align 8, !tbaa !31
  %23 = shl nsw i32 %12, 2
  %24 = getelementptr inbounds nuw i8, ptr %5, i64 56
  %25 = load i32, ptr %24, align 8, !tbaa !32
  %26 = mul nsw i32 %23, %25
  %27 = sext i32 %26 to i64
  %28 = getelementptr inbounds i8, ptr %22, i64 %27
  %29 = getelementptr inbounds nuw i8, ptr %0, i64 64
  store ptr %28, ptr %29, align 8, !tbaa !33
  %30 = getelementptr inbounds nuw i8, ptr %5, i64 23664
  %31 = load ptr, ptr %30, align 8, !tbaa !34
  %32 = getelementptr inbounds nuw i8, ptr %0, i64 72
  store ptr %31, ptr %32, align 8, !tbaa !35
  %33 = getelementptr inbounds nuw i8, ptr %5, i64 23648
  %34 = load ptr, ptr %33, align 8, !tbaa !36
  %35 = mul nsw i32 %12, %3
  %36 = sext i32 %35 to i64
  %37 = getelementptr inbounds %struct.VP8MBInfo, ptr %34, i64 %36
  %38 = getelementptr inbounds nuw i8, ptr %0, i64 48
  store ptr %37, ptr %38, align 8, !tbaa !38
  %39 = getelementptr inbounds nuw i8, ptr %5, i64 23672
  %40 = load ptr, ptr %39, align 8, !tbaa !39
  %41 = getelementptr inbounds nuw i8, ptr %0, i64 384
  store ptr %40, ptr %41, align 8, !tbaa !40
  %42 = getelementptr inbounds nuw i8, ptr %5, i64 23680
  %43 = load ptr, ptr %42, align 8, !tbaa !41
  %44 = getelementptr inbounds nuw i8, ptr %0, i64 392
  store ptr %43, ptr %44, align 8, !tbaa !42
  %45 = icmp sgt i32 %11, -1
  %46 = select i1 %45, i8 -127, i8 127
  %47 = getelementptr inbounds nuw i8, ptr %0, i64 376
  %48 = load ptr, ptr %47, align 8, !tbaa !43
  %49 = getelementptr inbounds i8, ptr %48, i64 -1
  store i8 %46, ptr %49, align 1, !tbaa !44
  %50 = getelementptr inbounds nuw i8, ptr %0, i64 368
  %51 = load ptr, ptr %50, align 8, !tbaa !45
  %52 = getelementptr inbounds i8, ptr %51, i64 -1
  store i8 %46, ptr %52, align 1, !tbaa !44
  %53 = getelementptr inbounds nuw i8, ptr %0, i64 360
  %54 = load ptr, ptr %53, align 8, !tbaa !46
  %55 = getelementptr inbounds i8, ptr %54, i64 -1
  store i8 %46, ptr %55, align 1, !tbaa !44
  %56 = load ptr, ptr %53, align 8, !tbaa !46
  tail call void @llvm.memset.p0.i64(ptr noundef nonnull align 1 dereferenceable(16) %56, i8 -127, i64 16, i1 false)
  %57 = load ptr, ptr %50, align 8, !tbaa !45
  store i64 -9114861777597660799, ptr %57, align 1
  %58 = load ptr, ptr %47, align 8, !tbaa !43
  store i64 -9114861777597660799, ptr %58, align 1
  %59 = getelementptr inbounds nuw i8, ptr %0, i64 200
  store i32 0, ptr %59, align 8, !tbaa !47
  %60 = getelementptr inbounds nuw i8, ptr %0, i64 352
  %61 = load ptr, ptr %60, align 8, !tbaa !48
  %.not.i.i = icmp eq ptr %61, null
  br i1 %.not.i.i, label %VP8IteratorSetRow.exit, label %62

62:                                               ; preds = %9
  %63 = getelementptr inbounds nuw i8, ptr %0, i64 344
  store i32 0, ptr %63, align 8
  br label %VP8IteratorSetRow.exit

64:                                               ; preds = %1
  %65 = getelementptr inbounds nuw i8, ptr %0, i64 64
  %66 = load ptr, ptr %65, align 8, !tbaa !33
  %67 = getelementptr inbounds nuw i8, ptr %66, i64 4
  store ptr %67, ptr %65, align 8, !tbaa !33
  %68 = getelementptr inbounds nuw i8, ptr %0, i64 48
  %69 = load ptr, ptr %68, align 8, !tbaa !38
  %70 = getelementptr inbounds nuw i8, ptr %69, i64 4
  store ptr %70, ptr %68, align 8, !tbaa !38
  %71 = getelementptr inbounds nuw i8, ptr %0, i64 72
  %72 = load ptr, ptr %71, align 8, !tbaa !35
  %73 = getelementptr inbounds nuw i8, ptr %72, i64 4
  store ptr %73, ptr %71, align 8, !tbaa !35
  %74 = getelementptr inbounds nuw i8, ptr %0, i64 384
  %75 = load ptr, ptr %74, align 8, !tbaa !40
  %76 = getelementptr inbounds nuw i8, ptr %75, i64 16
  store ptr %76, ptr %74, align 8, !tbaa !40
  %77 = getelementptr inbounds nuw i8, ptr %0, i64 392
  %78 = load ptr, ptr %77, align 8, !tbaa !42
  %79 = getelementptr inbounds nuw i8, ptr %78, i64 16
  store ptr %79, ptr %77, align 8, !tbaa !42
  br label %VP8IteratorSetRow.exit

VP8IteratorSetRow.exit:                           ; preds = %62, %9, %64
  %80 = getelementptr inbounds nuw i8, ptr %0, i64 332
  %81 = load i32, ptr %80, align 4, !tbaa !50
  %82 = add nsw i32 %81, -1
  store i32 %82, ptr %80, align 4, !tbaa !50
  %83 = icmp sgt i32 %81, 1
  %84 = zext i1 %83 to i32
  ret i32 %84
}